target datalayout = "e-m:e-p270:32:32-p271:32:32-p272:64:64-i64:64-i128:128-f80:128-n8:16:32:64-S128"
target triple = "x86_64-pc-linux-gnu"

%struct.GLNVGcontext = type { %struct.GLNVGshader, ptr, [2 x float], i32, i32, i32, i32, i32, i32, i32, i32, ptr, i32, i32, ptr, i32, i32, ptr, i32, i32, ptr, i32, i32, i32, i32, i32, i32, i32, %struct.GLNVGblend }
%struct.GLNVGshader = type { i32, i32, i32, [3 x i32] }
%struct.GLNVGblend = type { i32, i32, i32, i32 }
%struct.GLNVGtexture = type { i32, i32, i32, i32, i32, i32 }

; Function Attrs: mustprogress nounwind uwtable
define internal noundef ptr @_ZL18glnvg__findTextureP12GLNVGcontexti(ptr noundef %0, i32 noundef %1) #7 {
  %3 = alloca ptr, align 8
  %4 = alloca ptr, align 8
  %5 = alloca i32, align 4
  %6 = alloca i32, align 4
  store ptr %0, ptr %4, align 8
  store i32 %1, ptr %5, align 4
  store i32 0, ptr %6, align 4
  br label %7

7:                                                ; preds = %32, %2
  %8 = load i32, ptr %6, align 4
  %9 = load ptr, ptr %4, align 8
  %10 = getelementptr inbounds %struct.GLNVGcontext, ptr %9, i32 0, i32 3
  %11 = load i32, ptr %10, align 8
  %12 = icmp slt i32 %8, %11
  br i1 %12, label %13, label %35

13:                                               ; preds = %7
  %14 = load ptr, ptr %4, align 8
  %15 = getelementptr inbounds %struct.GLNVGcontext, ptr %14, i32 0, i32 1
  %16 = load ptr, ptr %15, align 8
  %17 = load i32, ptr %6, align 4
  %18 = sext i32 %17 to i64
  %19 = getelementptr inbounds %struct.GLNVGtexture, ptr %16, i64 %18
  %20 = getelementptr inbounds %struct.GLNVGtexture, ptr %19, i32 0, i32 0
  %21 = load i32, ptr %20, align 4
  %22 = load i32, ptr %5, align 4
  %23 = icmp eq i32 %21, %22
  br i1 %23, label %24, label %31

24:                                               ; preds = %13
  %25 = load ptr, ptr %4, align 8
  %26 = getelementptr inbounds %struct.GLNVGcontext, ptr %25, i32 0, i32 1
  %27 = load ptr, ptr %26, align 8
  %28 = load i32, ptr %6, align 4
  %29 = sext i32 %28 to i64
  %30 = getelementptr inbounds %struct.GLNVGtexture, ptr %27, i64 %29
  store ptr %30, ptr %3, align 8
  br label %36

31:                                               ; preds = %13
  br label %32

32:                                               ; preds = %31
  %33 = load i32, ptr %6, align 4
  %34 = add nsw i32 %33, 1
  store i32 %34, ptr %6, align 4
  br label %7, !llvm.loop !11

35:                                               ; preds = %7
  store ptr null, ptr %3, align 8
  br label %36

36:                                               ; preds = %35, %24
  %37 = load ptr, ptr %3, align 8
  ret ptr %37
}

; Function Attrs: mustprogress uwtable
define internal noundef i32 @_ZL27glnvg__renderGetTextureSizePviPiS0_(ptr noundef %0, i32 noundef %1, ptr noundef %2, ptr noundef %3) #4 {
  %5 = alloca i32, align 4
  %6 = alloca ptr, align 8
  %7 = alloca i32, align 4
  %8 = alloca ptr, align 8
  %9 = alloca ptr, align 8
  %10 = alloca ptr, align 8
  %11 = alloca ptr, align 8
  store ptr %0, ptr %6, align 8
  store i32 %1, ptr %7, align 4
  store ptr %2, ptr %8, align 8
  store ptr %3, ptr %9, align 8
  %12 = load ptr, ptr %6, align 8
  store ptr %12, ptr %10, align 8
  %13 = load ptr, ptr %10, align 8
  %14 = load i32, ptr %7, align 4
  %15 = call noundef ptr @_ZL18glnvg__findTextureP12GLNVGcontexti(ptr noundef %13, i32 noundef %14)
  store ptr %15, ptr %11, align 8
  %16 = load ptr, ptr %11, align 8
  %17 = icmp eq ptr %16, null
  br i1 %17, label %18, label %19

18:                                               ; preds = %4
  store i32 0, ptr %5, align 4
  br label %28

19:                                               ; preds = %4
  %20 = load ptr, ptr %11, align 8
  %21 = getelementptr inbounds %struct.GLNVGtexture, ptr %20, i32 0, i32 2
  %22 = load i32, ptr %21, align 4
  %23 = load ptr, ptr %8, align 8
  store i32 %22, ptr %23, align 4
  %24 = load ptr, ptr %11, align 8
  %25 = getelementptr inbounds %struct.GLNVGtexture, ptr %24, i32 0, i32 3
  %26 = load i32, ptr %25, align 4
  %27 = load ptr, ptr %9, align 8
  store i32 %26, ptr %27, align 4
  store i32 1, ptr %5, align 4
  br label %28

28:                                               ; preds = %19, %18
  %29 = load i32, ptr %5, align 4
  ret i32 %29
}