; Function Attrs: mustprogress nofree norecurse nosync nounwind memory(read, argmem: readwrite, inaccessiblemem: none) uwtable
define internal noundef i32 @_ZL27glnvg__renderGetTextureSizePviPiS0_(ptr nocapture noundef readonly %0, i32 noundef %1, ptr nocapture noundef writeonly %2, ptr nocapture noundef writeonly %3) #5 {
  %5 = getelementptr inbounds i8, ptr %0, i64 40
  %6 = load i32, ptr %5, align 8
  %7 = icmp sgt i32 %6, 0
  br i1 %7, label %.lr.ph.i, label %_ZL18glnvg__findTextureP12GLNVGcontexti.exit.thread

.lr.ph.i:                                         ; preds = %4
  %8 = getelementptr inbounds i8, ptr %0, i64 24
  %9 = load ptr, ptr %8, align 8
  %wide.trip.count.i = zext nneg i32 %6 to i64
  br label %11

10:                                               ; preds = %11
  %indvars.iv.next.i = add nuw nsw i64 %indvars.iv.i, 1
  %exitcond.not.i = icmp eq i64 %indvars.iv.next.i, %wide.trip.count.i
  br i1 %exitcond.not.i, label %_ZL18glnvg__findTextureP12GLNVGcontexti.exit.thread, label %11, !llvm.loop !8

11:                                               ; preds = %10, %.lr.ph.i
  %indvars.iv.i = phi i64 [ 0, %.lr.ph.i ], [ %indvars.iv.next.i, %10 ]
  %12 = getelementptr inbounds %struct.GLNVGtexture, ptr %9, i64 %indvars.iv.i
  %13 = load i32, ptr %12, align 4
  %14 = icmp eq i32 %13, %1
  br i1 %14, label %_ZL18glnvg__findTextureP12GLNVGcontexti.exit, label %10

_ZL18glnvg__findTextureP12GLNVGcontexti.exit:     ; preds = %11
  %15 = getelementptr inbounds i8, ptr %12, i64 8
  %16 = load i32, ptr %15, align 4
  store i32 %16, ptr %2, align 4
  %17 = getelementptr inbounds i8, ptr %12, i64 12
  %18 = load i32, ptr %17, align 4
  store i32 %18, ptr %3, align 4
  br label %_ZL18glnvg__findTextureP12GLNVGcontexti.exit.thread

_ZL18glnvg__findTextureP12GLNVGcontexti.exit.thread: ; preds = %10, %4, %_ZL18glnvg__findTextureP12GLNVGcontexti.exit
  %.0 = phi i32 [ 1, %_ZL18glnvg__findTextureP12GLNVGcontexti.exit ], [ 0, %4 ], [ 0, %10 ]
  ret i32 %.0
}